(dp0
VServer
p1
Vcmsweb.cern.ch
p2
sVPort
p3
V
p4
sVRequestName
p5
V230812_180145:ssawant_crab_Run2022G-ZMu-PromptReco-v1
p6
sVvoRole
p7
VNULL
p8
sVvoGroup
p9
g4
sVinstance
p10
Vprod
p11
sVOriginalConfig
p12
ccopy_reg
_reconstructor
p13
(cWMCore.Configuration
Configuration
p14
c__builtin__
object
p15
Ntp16
Rp17
(dp18
V_internal_sections
p19
(lp20
VGeneral
p21
aVJobType
p22
aVData
p23
aVSite
p24
aVUser
p25
aVDebug
p26
asg21
g13
(cWMCore.Configuration
ConfigSection
p27
g15
Ntp28
Rp29
(dp30
V_internal_documentation
p31
g4
sV_internal_name
p32
g21
sV_internal_settings
p33
c__builtin__
set
p34
((lp35
VworkArea
p36
aVtransferOutputs
p37
aVtransferLogs
p38
aVrequestName
p39
atp40
Rp41
sV_internal_docstrings
p42
(dp43
sV_internal_children
p44
g34
((lp45
tp46
Rp47
sV_internal_parent_ref
p48
NsV_internal_skipChecks
p49
I00
sg36
VL1TNtuple_13_1_0_pre4_forHCALPaper_PFA1p
p50
sg37
I01
sg38
I00
sg39
VRun2022G-ZMu-PromptReco-v1
p51
sbsg22
g13
(g27
g15
Ntp52
Rp53
(dp54
g31
g4
sg32
g22
sg33
g34
((lp55
VpluginName
p56
aVpsetName
p57
atp58
Rp59
sg42
(dp60
sg44
g34
((lp61
tp62
Rp63
sg48
Nsg49
I00
sg56
VAnalysis
p64
sg57
VL1_PFA1prime.py
p65
sbsg23
g13
(g27
g15
Ntp66
Rp67
(dp68
g31
g4
sg32
g23
sg33
g34
((lp69
Vsplitting
p70
aVrunRange
p71
aVinputDataset
p72
aVoutputDatasetTag
p73
aVunitsPerJob
p74
aVignoreLocality
p75
aVlumiMask
p76
aVoutLFNDirBase
p77
aVinputDBS
p78
atp79
Rp80
sg42
(dp81
sg44
g34
((lp82
tp83
Rp84
sg48
Nsg49
I00
sg72
V/Muon/Run2022G-ZMu-PromptReco-v1/RAW-RECO
p85
sg73
VL1TNtuple_13_1_0_pre4_forHCALPaper_PFA1p_Run2022G-ZMu-PromptReco-v1
p86
sg75
I00
sg78
Vglobal
p87
sg70
VLumiBased
p88
sg76
Vhttps://cms-service-dqmdc.web.cern.ch/CAF/certification/Collisions22/Cert_Collisions2022_355100_362760_Golden.json
p89
sg71
V362433-362760
p90
sg74
I10
sg77
V/store/group/dpg_trigger/comm_trigger/L1Trigger/ssawant/
p91
sbsg24
g13
(g27
g15
Ntp92
Rp93
(dp94
g31
g4
sg32
g24
sg33
g34
((lp95
VstorageSite
p96
atp97
Rp98
sg42
(dp99
sg44
g34
((lp100
tp101
Rp102
sg48
Nsg49
I00
sg96
VT2_CH_CERN
p103
sbsg25
g13
(g27
g15
Ntp104
Rp105
(dp106
g31
g4
sg32
g25
sg33
g34
((lp107
tp108
Rp109
sg42
(dp110
sg44
g34
((lp111
tp112
Rp113
sg48
Nsg49
I00
sbsg26
g13
(g27
g15
Ntp114
Rp115
(dp116
g31
g4
sg32
g26
sg33
g34
((lp117
tp118
Rp119
sg42
(dp120
sg44
g34
((lp121
tp122
Rp123
sg48
Nsg49
I00
sbsbs.